; Function Attrs: nounwind uwtable
define internal void @_StartLO(ptr noundef %0, ptr readnone captures(none) %1, i32 noundef %2) #0 {
  %4 = icmp eq i32 %2, 0
  br i1 %4, label %5, label %6

5:                                                ; preds = %3
  tail call void (i32, i32, ptr, ...) @pg_log_generic(i32 noundef 4, i32 noundef 0, ptr noundef nonnull @.str.8) #7
  tail call void @exit_nicely(i32 noundef 1) #8
  unreachable

6:                                                ; preds = %3
  %7 = getelementptr inbounds nuw i8, ptr %0, i64 592
  %8 = load ptr, ptr %7, align 8
  %9 = tail call i64 @WriteInt(ptr noundef %0, i32 noundef %2) #7
  %10 = getelementptr inbounds nuw i8, ptr %0, i64 544
  %11 = tail call ptr @AllocateCompressor(ptr noundef nonnull byval(%struct.pg_compress_specification) align 8 %10, ptr noundef null, ptr noundef nonnull @_CustomWriteFunc) #7
  store ptr %11, ptr %8, align 8
  ret void
}